target datalayout = "e-m:e-p270:32:32-p271:32:32-p272:64:64-i64:64-i128:128-f80:128-n8:16:32:64-S128"
target triple = "x86_64-pc-linux-gnu"

@proto_register_ax25_kiss.ett = internal global [1 x ptr] [ptr @ett_ax25_kiss], align 8
@.str.20 = private unnamed_addr constant [11 x i8] c"AX.25 KISS\00", align 1
@.str.21 = private unnamed_addr constant [10 x i8] c"ax25_kiss\00", align 1
@proto_ax25_kiss = internal global i32 0, align 4
@kiss_handle = internal global ptr null, align 8
@.str.22 = private unnamed_addr constant [10 x i8] c"showcksum\00", align 1
@.str.23 = private unnamed_addr constant [18 x i8] c"Set checksum mode\00", align 1
@.str.24 = private unnamed_addr constant [29 x i8] c"Enable checksum calculation.\00", align 1
@gPREF_CKSUM_MODE = internal global i8 0, align 1

; Function Attrs: null_pointer_is_valid sspstrong uwtable
define hidden void @proto_register_ax25_kiss() #0 {
  %1 = alloca ptr, align 8
  call void @llvm.lifetime.start.p0(i64 8, ptr %1) #5
  %2 = call i32 @proto_register_protocol(ptr noundef @.str.20, ptr noundef @.str.20, ptr noundef @.str.21)
  store i32 %2, ptr @proto_ax25_kiss, align 4
  %3 = load i32, ptr @proto_ax25_kiss, align 4
  %4 = call ptr @register_dissector(ptr noundef @.str.21, ptr noundef @dissect_ax25_kiss, i32 noundef %3)
  store ptr %4, ptr @kiss_handle, align 8
  %5 = load i32, ptr @proto_ax25_kiss, align 4
  call void @proto_register_field_array(i32 noundef %5, ptr noundef @proto_register_ax25_kiss.hf, i32 noundef 10)
  call void @proto_register_subtree_array(ptr noundef @proto_register_ax25_kiss.ett, i32 noundef 1)
  %6 = load i32, ptr @proto_ax25_kiss, align 4
  %7 = call ptr @prefs_register_protocol(i32 noundef %6, ptr noundef null)
  store ptr %7, ptr %1, align 8
  %8 = load ptr, ptr %1, align 8
  call void @prefs_register_bool_preference(ptr noundef %8, ptr noundef @.str.22, ptr noundef @.str.23, ptr noundef @.str.24, ptr noundef @gPREF_CKSUM_MODE)
  call void @llvm.lifetime.end.p0(i64 8, ptr %1) #5
  ret void
}