; Function Attrs: null_pointer_is_valid sspstrong uwtable
define hidden void @proto_register_ax25_kiss() local_unnamed_addr #0 {
  %1 = tail call i32 @proto_register_protocol(ptr noundef nonnull @.str.20, ptr noundef nonnull @.str.20, ptr noundef nonnull @.str.21)
  store i32 %1, ptr @proto_ax25_kiss, align 4
  %2 = tail call ptr @register_dissector(ptr noundef nonnull @.str.21, ptr noundef nonnull @dissect_ax25_kiss, i32 noundef %1)
  store ptr %2, ptr @kiss_handle, align 8
  %3 = load i32, ptr @proto_ax25_kiss, align 4
  tail call void @proto_register_field_array(i32 noundef %3, ptr noundef nonnull @proto_register_ax25_kiss.hf, i32 noundef 10)
  tail call void @proto_register_subtree_array(ptr noundef nonnull @proto_register_ax25_kiss.ett, i32 noundef 1)
  %4 = load i32, ptr @proto_ax25_kiss, align 4
  %5 = tail call ptr @prefs_register_protocol(i32 noundef %4, ptr noundef null)
  tail call void @prefs_register_bool_preference(ptr noundef %5, ptr noundef nonnull @.str.22, ptr noundef nonnull @.str.23, ptr noundef nonnull @.str.24, ptr noundef nonnull @gPREF_CKSUM_MODE)
  ret void
}